; Function Attrs: mustprogress nounwind uwtable
define dso_local void @_ZNK4llvm2gi16AnyOpcodePattern5printERNS_11raw_ostreamEb(ptr noundef nonnull align 8 dereferenceable(80) %0, ptr noundef nonnull align 8 dereferenceable(48) %1, i1 noundef zeroext %2) unnamed_addr #0 align 2 {
  %4 = alloca %class.anon, align 8
  store ptr %1, ptr %4, align 8
  %5 = getelementptr inbounds nuw i8, ptr %4, i64 8
  store ptr %0, ptr %5, align 8
  %6 = ptrtoint ptr %4 to i64
  call void @_ZNK4llvm2gi7Pattern9printImplERNS_11raw_ostreamEbNS_12function_refIFvvEEE(ptr noundef nonnull align 8 dereferenceable(32) %0, ptr noundef nonnull align 8 dereferenceable(48) %1, i1 noundef zeroext %2, ptr nonnull @"_ZN4llvm12function_refIFvvEE11callback_fnIZNKS_2gi16AnyOpcodePattern5printERNS_11raw_ostreamEbE3$_0EEvl", i64 %6)
  ret void
}